target datalayout = "e-m:e-p270:32:32-p271:32:32-p272:64:64-i64:64-i128:128-f80:128-n8:16:32:64-S128"
target triple = "x86_64-pc-linux-gnu"

%"struct.std::_Vector_base.25" = type { %"struct.std::_Vector_base<int, std::allocator<int>>::_Vector_impl" }
%"struct.std::_Vector_base<int, std::allocator<int>>::_Vector_impl" = type { %"struct.std::_Vector_base<int, std::allocator<int>>::_Vector_impl_data" }
%"struct.std::_Vector_base<int, std::allocator<int>>::_Vector_impl_data" = type { ptr, ptr, ptr }
%struct.llama_batch = type { i32, ptr, ptr, ptr, ptr, ptr, ptr }

@.str.16 = private unnamed_addr constant [115 x i8] c"generated/home/dtcxzyw/WorkSpace/Projects/compilers/llvm-opt-benchmark/bench/llama.cpp/llama.cpp/common/common.cpp\00", align 1
@.str.17 = private unnamed_addr constant [23 x i8] c"GGML_ASSERT(%s) failed\00", align 1
@.str.67 = private unnamed_addr constant [60 x i8] c"batch.seq_id[batch.n_tokens] && \22llama_batch size exceeded\22\00", align 1

; Function Attrs: mustprogress nounwind uwtable
define linkonce_odr noundef nonnull align 4 dereferenceable(4) ptr @_ZNKSt6vectorIiSaIiEEixEm(ptr noundef nonnull align 8 dereferenceable(24) %0, i64 noundef %1) #6 comdat align 2 {
  %3 = alloca ptr, align 8
  %4 = alloca i64, align 8
  store ptr %0, ptr %3, align 8, !tbaa !152
  store i64 %1, ptr %4, align 8, !tbaa !42
  %5 = load ptr, ptr %3, align 8
  %6 = getelementptr inbounds nuw %"struct.std::_Vector_base.25", ptr %5, i32 0, i32 0
  %7 = getelementptr inbounds nuw %"struct.std::_Vector_base<int, std::allocator<int>>::_Vector_impl_data", ptr %6, i32 0, i32 0
  %8 = load ptr, ptr %7, align 8, !tbaa !357
  %9 = load i64, ptr %4, align 8, !tbaa !42
  %10 = getelementptr inbounds nuw i32, ptr %8, i64 %9
  ret ptr %10
}

; Function Attrs: mustprogress nounwind uwtable
define linkonce_odr noundef i64 @_ZNKSt6vectorIiSaIiEE4sizeEv(ptr noundef nonnull align 8 dereferenceable(24) %0) #6 comdat align 2 {
  %2 = alloca ptr, align 8
  store ptr %0, ptr %2, align 8, !tbaa !152
  %3 = load ptr, ptr %2, align 8
  %4 = getelementptr inbounds nuw %"struct.std::_Vector_base.25", ptr %3, i32 0, i32 0
  %5 = getelementptr inbounds nuw %"struct.std::_Vector_base<int, std::allocator<int>>::_Vector_impl_data", ptr %4, i32 0, i32 1
  %6 = load ptr, ptr %5, align 8, !tbaa !355
  %7 = getelementptr inbounds nuw %"struct.std::_Vector_base.25", ptr %3, i32 0, i32 0
  %8 = getelementptr inbounds nuw %"struct.std::_Vector_base<int, std::allocator<int>>::_Vector_impl_data", ptr %7, i32 0, i32 0
  %9 = load ptr, ptr %8, align 8, !tbaa !357
  %10 = ptrtoint ptr %6 to i64
  %11 = ptrtoint ptr %9 to i64
  %12 = sub i64 %10, %11
  %13 = sdiv exact i64 %12, 4
  ret i64 %13
}

; Function Attrs: mustprogress uwtable
define void @_Z16common_batch_addR11llama_batchiiRKSt6vectorIiSaIiEEb(ptr noundef nonnull align 8 dereferenceable(56) %0, i32 noundef %1, i32 noundef %2, ptr noundef nonnull align 8 dereferenceable(24) %3, i1 noundef zeroext %4) #4 {
  %6 = alloca ptr, align 8
  %7 = alloca i32, align 4
  %8 = alloca i32, align 4
  %9 = alloca ptr, align 8
  %10 = alloca i8, align 1
  %11 = alloca i64, align 8
  store ptr %0, ptr %6, align 8, !tbaa !173
  store i32 %1, ptr %7, align 4, !tbaa !3
  store i32 %2, ptr %8, align 4, !tbaa !3
  store ptr %3, ptr %9, align 8, !tbaa !152
  %12 = zext i1 %4 to i8
  store i8 %12, ptr %10, align 1, !tbaa !36
  %13 = load ptr, ptr %6, align 8, !tbaa !173
  %14 = getelementptr inbounds nuw %struct.llama_batch, ptr %13, i32 0, i32 5
  %15 = load ptr, ptr %14, align 8, !tbaa !182
  %16 = load ptr, ptr %6, align 8, !tbaa !173
  %17 = getelementptr inbounds nuw %struct.llama_batch, ptr %16, i32 0, i32 0
  %18 = load i32, ptr %17, align 8, !tbaa !175
  %19 = sext i32 %18 to i64
  %20 = getelementptr inbounds ptr, ptr %15, i64 %19
  %21 = load ptr, ptr %20, align 8, !tbaa !140
  %22 = icmp ne ptr %21, null
  br i1 %22, label %24, label %23

23:                                               ; preds = %5
  call void (ptr, i32, ptr, ...) @ggml_abort(ptr noundef @.str.16, i32 noundef 1619, ptr noundef @.str.17, ptr noundef @.str.67) #26
  unreachable

24:                                               ; preds = %5
  %25 = load i32, ptr %7, align 4, !tbaa !3
  %26 = load ptr, ptr %6, align 8, !tbaa !173
  %27 = getelementptr inbounds nuw %struct.llama_batch, ptr %26, i32 0, i32 1
  %28 = load ptr, ptr %27, align 8, !tbaa !179
  %29 = load ptr, ptr %6, align 8, !tbaa !173
  %30 = getelementptr inbounds nuw %struct.llama_batch, ptr %29, i32 0, i32 0
  %31 = load i32, ptr %30, align 8, !tbaa !175
  %32 = sext i32 %31 to i64
  %33 = getelementptr inbounds i32, ptr %28, i64 %32
  store i32 %25, ptr %33, align 4, !tbaa !3
  %34 = load i32, ptr %8, align 4, !tbaa !3
  %35 = load ptr, ptr %6, align 8, !tbaa !173
  %36 = getelementptr inbounds nuw %struct.llama_batch, ptr %35, i32 0, i32 3
  %37 = load ptr, ptr %36, align 8, !tbaa !180
  %38 = load ptr, ptr %6, align 8, !tbaa !173
  %39 = getelementptr inbounds nuw %struct.llama_batch, ptr %38, i32 0, i32 0
  %40 = load i32, ptr %39, align 8, !tbaa !175
  %41 = sext i32 %40 to i64
  %42 = getelementptr inbounds i32, ptr %37, i64 %41
  store i32 %34, ptr %42, align 4, !tbaa !3
  %43 = load ptr, ptr %9, align 8, !tbaa !152
  %44 = call noundef i64 @_ZNKSt6vectorIiSaIiEE4sizeEv(ptr noundef nonnull align 8 dereferenceable(24) %43) #3
  %45 = trunc i64 %44 to i32
  %46 = load ptr, ptr %6, align 8, !tbaa !173
  %47 = getelementptr inbounds nuw %struct.llama_batch, ptr %46, i32 0, i32 4
  %48 = load ptr, ptr %47, align 8, !tbaa !181
  %49 = load ptr, ptr %6, align 8, !tbaa !173
  %50 = getelementptr inbounds nuw %struct.llama_batch, ptr %49, i32 0, i32 0
  %51 = load i32, ptr %50, align 8, !tbaa !175
  %52 = sext i32 %51 to i64
  %53 = getelementptr inbounds i32, ptr %48, i64 %52
  store i32 %45, ptr %53, align 4, !tbaa !3
  call void @llvm.lifetime.start.p0(i64 8, ptr %11) #3
  store i64 0, ptr %11, align 8, !tbaa !42
  br label %54

54:                                               ; preds = %76, %24
  %55 = load i64, ptr %11, align 8, !tbaa !42
  %56 = load ptr, ptr %9, align 8, !tbaa !152
  %57 = call noundef i64 @_ZNKSt6vectorIiSaIiEE4sizeEv(ptr noundef nonnull align 8 dereferenceable(24) %56) #3
  %58 = icmp ult i64 %55, %57
  br i1 %58, label %60, label %59

59:                                               ; preds = %54
  call void @llvm.lifetime.end.p0(i64 8, ptr %11) #3
  br label %79

60:                                               ; preds = %54
  %61 = load ptr, ptr %9, align 8, !tbaa !152
  %62 = load i64, ptr %11, align 8, !tbaa !42
  %63 = call noundef nonnull align 4 dereferenceable(4) ptr @_ZNKSt6vectorIiSaIiEEixEm(ptr noundef nonnull align 8 dereferenceable(24) %61, i64 noundef %62) #3
  %64 = load i32, ptr %63, align 4, !tbaa !3
  %65 = load ptr, ptr %6, align 8, !tbaa !173
  %66 = getelementptr inbounds nuw %struct.llama_batch, ptr %65, i32 0, i32 5
  %67 = load ptr, ptr %66, align 8, !tbaa !182
  %68 = load ptr, ptr %6, align 8, !tbaa !173
  %69 = getelementptr inbounds nuw %struct.llama_batch, ptr %68, i32 0, i32 0
  %70 = load i32, ptr %69, align 8, !tbaa !175
  %71 = sext i32 %70 to i64
  %72 = getelementptr inbounds ptr, ptr %67, i64 %71
  %73 = load ptr, ptr %72, align 8, !tbaa !140
  %74 = load i64, ptr %11, align 8, !tbaa !42
  %75 = getelementptr inbounds nuw i32, ptr %73, i64 %74
  store i32 %64, ptr %75, align 4, !tbaa !3
  br label %76

76:                                               ; preds = %60
  %77 = load i64, ptr %11, align 8, !tbaa !42
  %78 = add i64 %77, 1
  store i64 %78, ptr %11, align 8, !tbaa !42
  br label %54, !llvm.loop !378

79:                                               ; preds = %59
  %80 = load i8, ptr %10, align 1, !tbaa !36, !range !37, !noundef !38
  %81 = trunc i8 %80 to i1
  %82 = zext i1 %81 to i8
  %83 = load ptr, ptr %6, align 8, !tbaa !173
  %84 = getelementptr inbounds nuw %struct.llama_batch, ptr %83, i32 0, i32 6
  %85 = load ptr, ptr %84, align 8, !tbaa !183
  %86 = load ptr, ptr %6, align 8, !tbaa !173
  %87 = getelementptr inbounds nuw %struct.llama_batch, ptr %86, i32 0, i32 0
  %88 = load i32, ptr %87, align 8, !tbaa !175
  %89 = sext i32 %88 to i64
  %90 = getelementptr inbounds i8, ptr %85, i64 %89
  store i8 %82, ptr %90, align 1, !tbaa !35
  %91 = load ptr, ptr %6, align 8, !tbaa !173
  %92 = getelementptr inbounds nuw %struct.llama_batch, ptr %91, i32 0, i32 0
  %93 = load i32, ptr %92, align 8, !tbaa !175
  %94 = add nsw i32 %93, 1
  store i32 %94, ptr %92, align 8, !tbaa !175
  ret void
}