; Function Attrs: mustprogress uwtable
define void @_Z16common_batch_addR11llama_batchiiRKSt6vectorIiSaIiEEb(ptr noundef nonnull align 8 captures(none) dereferenceable(56) %0, i32 noundef %1, i32 noundef %2, ptr noundef nonnull readonly align 8 captures(none) dereferenceable(24) %3, i1 noundef zeroext %4) local_unnamed_addr #3 {
  %6 = getelementptr inbounds nuw i8, ptr %0, i64 40
  %7 = load ptr, ptr %6, align 8, !tbaa !245
  %8 = load i32, ptr %0, align 8, !tbaa !227
  %9 = sext i32 %8 to i64
  %10 = getelementptr inbounds ptr, ptr %7, i64 %9
  %11 = load ptr, ptr %10, align 8, !tbaa !202
  %.not = icmp eq ptr %11, null
  br i1 %.not, label %12, label %13

12:                                               ; preds = %5
  tail call void (ptr, i32, ptr, ...) @ggml_abort(ptr noundef nonnull @.str.16, i32 noundef 1619, ptr noundef nonnull @.str.17, ptr noundef nonnull @.str.67) #39
  unreachable

13:                                               ; preds = %5
  %14 = getelementptr inbounds nuw i8, ptr %0, i64 8
  %15 = load ptr, ptr %14, align 8, !tbaa !231
  %16 = getelementptr inbounds i32, ptr %15, i64 %9
  store i32 %1, ptr %16, align 4, !tbaa !72
  %17 = getelementptr inbounds nuw i8, ptr %0, i64 24
  %18 = load ptr, ptr %17, align 8, !tbaa !237
  %19 = load i32, ptr %0, align 8, !tbaa !227
  %20 = sext i32 %19 to i64
  %21 = getelementptr inbounds i32, ptr %18, i64 %20
  store i32 %2, ptr %21, align 4, !tbaa !72
  %22 = getelementptr inbounds nuw i8, ptr %3, i64 8
  %23 = load ptr, ptr %22, align 8, !tbaa !462
  %24 = load ptr, ptr %3, align 8, !tbaa !463
  %25 = ptrtoint ptr %23 to i64
  %26 = ptrtoint ptr %24 to i64
  %27 = sub i64 %25, %26
  %28 = ashr exact i64 %27, 2
  %29 = trunc i64 %28 to i32
  %30 = getelementptr inbounds nuw i8, ptr %0, i64 32
  %31 = load ptr, ptr %30, align 8, !tbaa !241
  %32 = load i32, ptr %0, align 8, !tbaa !227
  %33 = sext i32 %32 to i64
  %34 = getelementptr inbounds i32, ptr %31, i64 %33
  store i32 %29, ptr %34, align 4, !tbaa !72
  %.not23 = icmp eq ptr %23, %24
  br i1 %.not23, label %._crit_edge, label %.lr.ph.preheader

.lr.ph.preheader:                                 ; preds = %13
  %umax = tail call i64 @llvm.umax.i64(i64 %28, i64 1)
  br label %.lr.ph

._crit_edge:                                      ; preds = %.lr.ph, %13
  %35 = zext i1 %4 to i8
  %36 = getelementptr inbounds nuw i8, ptr %0, i64 48
  %37 = load ptr, ptr %36, align 8, !tbaa !249
  %38 = load i32, ptr %0, align 8, !tbaa !227
  %39 = sext i32 %38 to i64
  %40 = getelementptr inbounds i8, ptr %37, i64 %39
  store i8 %35, ptr %40, align 1, !tbaa !28
  %41 = load i32, ptr %0, align 8, !tbaa !227
  %42 = add nsw i32 %41, 1
  store i32 %42, ptr %0, align 8, !tbaa !227
  ret void

.lr.ph:                                           ; preds = %.lr.ph.preheader, %.lr.ph
  %.022 = phi i64 [ %50, %.lr.ph ], [ 0, %.lr.ph.preheader ]
  %43 = getelementptr inbounds nuw i32, ptr %24, i64 %.022
  %44 = load i32, ptr %43, align 4, !tbaa !72
  %45 = load i32, ptr %0, align 8, !tbaa !227
  %46 = sext i32 %45 to i64
  %47 = getelementptr inbounds ptr, ptr %7, i64 %46
  %48 = load ptr, ptr %47, align 8, !tbaa !202
  %49 = getelementptr inbounds nuw i32, ptr %48, i64 %.022
  store i32 %44, ptr %49, align 4, !tbaa !72
  %50 = add nuw i64 %.022, 1
  %exitcond.not = icmp eq i64 %50, %umax
  br i1 %exitcond.not, label %._crit_edge, label %.lr.ph, !llvm.loop !464
}